; ModuleID = 'source-C-CXX/18/1905.c'
source_filename = "source-C-CXX/18/1905.c"
target datalayout = "e-m:e-p270:32:32-p271:32:32-p272:64:64-i64:64-f80:128-n8:16:32:64-S128"
target triple = "x86_64-pc-linux-gnu"

; Function Attrs: nounwind sspstrong uwtable
define dso_local i32 @main() local_unnamed_addr #0 {
  %1 = alloca [100 x i8], align 16
  %2 = alloca [100 x i8], align 16
  %3 = alloca [100 x i8], align 16
  %4 = alloca [100 x i8], align 16
  %5 = alloca [100 x i8], align 16
  %6 = getelementptr inbounds [100 x i8], [100 x i8]* %1, i64 0, i64 0
  call void @llvm.lifetime.start.p0i8(i64 100, i8* nonnull %6) #8
  %7 = getelementptr inbounds [100 x i8], [100 x i8]* %2, i64 0, i64 0
  call void @llvm.lifetime.start.p0i8(i64 100, i8* nonnull %7) #8
  %8 = getelementptr inbounds [100 x i8], [100 x i8]* %3, i64 0, i64 0
  call void @llvm.lifetime.start.p0i8(i64 100, i8* nonnull %8) #8
  %9 = getelementptr inbounds [100 x i8], [100 x i8]* %4, i64 0, i64 0
  call void @llvm.lifetime.start.p0i8(i64 100, i8* nonnull %9) #8
  %10 = getelementptr inbounds [100 x i8], [100 x i8]* %5, i64 0, i64 0
  call void @llvm.lifetime.start.p0i8(i64 100, i8* nonnull %10) #8
  call void @llvm.memset.p0i8.i64(i8* noundef nonnull align 16 dereferenceable(100) %10, i8 0, i64 100, i1 false)
  %11 = call i32 (i8*, ...) bitcast (i32 (...)* @gets to i32 (i8*, ...)*)(i8* nonnull %6) #8
  %12 = call i32 (i8*, ...) bitcast (i32 (...)* @gets to i32 (i8*, ...)*)(i8* nonnull %7) #8
  %13 = call i32 (i8*, ...) bitcast (i32 (...)* @gets to i32 (i8*, ...)*)(i8* nonnull %8) #8
  %14 = call i64 @strlen(i8* noundef nonnull %6)
  %15 = getelementptr [100 x i8], [100 x i8]* %1, i64 0, i64 %14
  %16 = bitcast i8* %15 to i16*
  store i16 32, i16* %16, align 1
  %17 = load i8, i8* %6, align 16, !tbaa !5
  %18 = icmp eq i8 %17, 0
  br i1 %18, label %58, label %19

19:                                               ; preds = %0, %54
  %20 = phi i8 [ %52, %54 ], [ %17, %0 ]
  %21 = phi i32 [ %49, %54 ], [ 0, %0 ]
  %22 = icmp eq i8 %20, 32
  br i1 %22, label %37, label %23

23:                                               ; preds = %19
  %24 = sext i32 %21 to i64
  br label %25

25:                                               ; preds = %23, %25
  %26 = phi i64 [ 0, %23 ], [ %31, %25 ]
  %27 = phi i64 [ %24, %23 ], [ %30, %25 ]
  %28 = phi i8 [ %20, %23 ], [ %33, %25 ]
  %29 = getelementptr inbounds [100 x i8], [100 x i8]* %4, i64 0, i64 %26
  store i8 %28, i8* %29, align 1, !tbaa !5
  %30 = add nsw i64 %27, 1
  %31 = add nuw i64 %26, 1
  %32 = getelementptr inbounds [100 x i8], [100 x i8]* %1, i64 0, i64 %30
  %33 = load i8, i8* %32, align 1, !tbaa !5
  %34 = icmp eq i8 %33, 32
  br i1 %34, label %35, label %25, !llvm.loop !8

35:                                               ; preds = %25
  %36 = trunc i64 %30 to i32
  br label %37

37:                                               ; preds = %35, %19
  %38 = phi i64 [ 0, %19 ], [ %31, %35 ]
  %39 = phi i32 [ %21, %19 ], [ %36, %35 ]
  %40 = and i64 %38, 4294967295
  %41 = getelementptr inbounds [100 x i8], [100 x i8]* %4, i64 0, i64 %40
  store i8 0, i8* %41, align 1, !tbaa !5
  %42 = call i32 @strcmp(i8* noundef nonnull %9, i8* noundef nonnull %7) #9
  %43 = icmp ne i32 %42, 0
  %44 = load i8, i8* %9, align 16
  %45 = icmp eq i8 %44, 0
  %46 = select i1 %43, i1 true, i1 %45
  %47 = select i1 %46, i8* %9, i8* %8
  %48 = call i8* @strcat(i8* noundef nonnull %10, i8* noundef nonnull %47) #8
  %49 = add nsw i32 %39, 1
  %50 = sext i32 %49 to i64
  %51 = getelementptr inbounds [100 x i8], [100 x i8]* %1, i64 0, i64 %50
  %52 = load i8, i8* %51, align 1, !tbaa !5
  %53 = icmp eq i8 %52, 0
  br i1 %53, label %58, label %54

54:                                               ; preds = %37
  %55 = call i64 @strlen(i8* noundef nonnull %10)
  %56 = getelementptr [100 x i8], [100 x i8]* %5, i64 0, i64 %55
  %57 = bitcast i8* %56 to i16*
  store i16 32, i16* %57, align 1
  br label %19

58:                                               ; preds = %37, %0
  %59 = call i32 @puts(i8* nonnull %10)
  call void @llvm.lifetime.end.p0i8(i64 100, i8* nonnull %10) #8
  call void @llvm.lifetime.end.p0i8(i64 100, i8* nonnull %9) #8
  call void @llvm.lifetime.end.p0i8(i64 100, i8* nonnull %8) #8
  call void @llvm.lifetime.end.p0i8(i64 100, i8* nonnull %7) #8
  call void @llvm.lifetime.end.p0i8(i64 100, i8* nonnull %6) #8
  ret i32 0
}

; Function Attrs: argmemonly mustprogress nofree nosync nounwind willreturn
declare void @llvm.lifetime.start.p0i8(i64 immarg, i8* nocapture) #1

; Function Attrs: argmemonly mustprogress nofree nounwind willreturn writeonly
declare void @llvm.memset.p0i8.i64(i8* nocapture writeonly, i8, i64, i1 immarg) #2

declare i32 @gets(...) local_unnamed_addr #3

; Function Attrs: argmemonly mustprogress nofree nounwind willreturn
declare i8* @strcat(i8* noalias returned, i8* noalias nocapture readonly) local_unnamed_addr #4

; Function Attrs: argmemonly mustprogress nofree nounwind readonly willreturn
declare i32 @strcmp(i8* nocapture, i8* nocapture) local_unnamed_addr #5

; Function Attrs: nofree nounwind
declare noundef i32 @puts(i8* nocapture noundef readonly) local_unnamed_addr #6

; Function Attrs: argmemonly mustprogress nofree nosync nounwind willreturn
declare void @llvm.lifetime.end.p0i8(i64 immarg, i8* nocapture) #1

; Function Attrs: argmemonly nofree nounwind readonly willreturn
declare i64 @strlen(i8* nocapture) local_unnamed_addr #7


!llvm.module.flags = !{!0, !1, !2, !3}
!llvm.ident = !{!4}

!0 = !{i32 1, !"wchar_size", i32 4}
!1 = !{i32 7, !"PIC Level", i32 2}
!2 = !{i32 7, !"PIE Level", i32 2}
!3 = !{i32 7, !"uwtable", i32 1}
!4 = !{!"clang version 13.0.0"}
!5 = !{!6, !6, i64 0}
!6 = !{!"omnipotent char", !7, i64 0}
!7 = !{!"Simple C/C++ TBAA"}
!8 = distinct !{!8, !9}
!9 = !{!"llvm.loop.mustprogress"}
